(dp1
S'output'
p2
S"<type 'exceptions.AttributeError'> 'DIV' object has no attribute 'process'"
p3
sS'layer'
p4
S'/home/kitewarrior4/ITWS/assg3/web2py/applications/recipository/controllers/default.py'
p5
sS'code'
p6
S'# -*- coding: utf-8 -*-\n# this file is released under public domain and you can use without limitations\n\n#########################################################################\n## This is a sample controller\n## - index is the default action of any application\n## - user is required for authentication and authorization\n## - download is for downloading files uploaded in the db (does streaming)\n#########################################################################\n\ndef index():\n    """\n    example action using the internationalization operator T and flash\n    rendered by views/default/index.html or views/generic.html\n\n    if you need a simple wiki simply replace the two lines below with:\n    return auth.wiki()\n    """\n    grid = db(db.recipe.id > 0).select()\n    return locals()\n\n\ndef user():\n    """\n    exposes:\n    http://..../[app]/default/user/login\n    http://..../[app]/default/user/logout\n    http://..../[app]/default/user/register\n    http://..../[app]/default/user/profile\n    http://..../[app]/default/user/retrieve_password\n    http://..../[app]/default/user/change_password\n    http://..../[app]/default/user/bulk_register\n    use @auth.requires_login()\n        @auth.requires_membership(\'group name\')\n        @auth.requires_permission(\'read\',\'table name\',record_id)\n    to decorate functions that need access control\n    also notice there is http://..../[app]/appadmin/manage/auth to allow administrator to manage users\n    """\n    return dict(form=auth())\n\n\n@cache.action()\ndef download():\n    """\n    allows downloading of uploaded files\n    http://..../[app]/default/download/[filename]\n    """\n    return response.download(request, db)\n\n\ndef call():\n    """\n    exposes services. for example:\n    http://..../[app]/default/call/jsonrpc\n    decorate with @services.jsonrpc the functions to expose\n    supports xml, json, xmlrpc, jsonrpc, amfrpc, rss, csv\n    """\n    return service()\n\n@auth.requires_login()\ndef newrecipe():\n\trecipe=SQLFORM.grid(db.recipe).process()\n\treturn locals()\n\nresponse._vars=response._caller(newrecipe)\n'
p7
sS'snapshot'
p8
(dp9
sS'traceback'
p10
S'Traceback (most recent call last):\n  File "/home/kitewarrior4/ITWS/assg3/web2py/gluon/restricted.py", line 227, in restricted\n    exec ccode in environment\n  File "/home/kitewarrior4/ITWS/assg3/web2py/applications/recipository/controllers/default.py", line 65, in <module>\n  File "/home/kitewarrior4/ITWS/assg3/web2py/gluon/globals.py", line 412, in <lambda>\n    self._caller = lambda f: f()\n  File "/home/kitewarrior4/ITWS/assg3/web2py/gluon/tools.py", line 4236, in f\n    return action(*a, **b)\n  File "/home/kitewarrior4/ITWS/assg3/web2py/applications/recipository/controllers/default.py", line 62, in newrecipe\n    recipe=SQLFORM.grid(db.recipe).process()\nAttributeError: \'DIV\' object has no attribute \'process\'\n'
p11
s.